GAS LISTING /tmp/ccFYLhE0.s 			page 1


   1               		.file	"main.c"
   2               	__SP_H__ = 0x3e
   3               	__SP_L__ = 0x3d
   4               	__SREG__ = 0x3f
   5               	__tmp_reg__ = 0
   6               	__zero_reg__ = 1
   7               		.text
   8               	.Ltext0:
   9               		.cfi_sections	.debug_frame
  10               		.section	.text.startup,"ax",@progbits
  11               	.global	main
  12               		.type	main, @function
  13               	main:
  14               	.LFB0:
  15               		.file 1 "main.c"
   1:main.c        **** #include "main.h"
   2:main.c        **** 
   3:main.c        **** volatile uint8_t counter;
   4:main.c        **** 
   5:main.c        **** int main(void){
  16               		.loc 1 5 0
  17               		.cfi_startproc
  18               	/* prologue: function */
  19               	/* frame size = 0 */
  20               	/* stack size = 0 */
  21               	.L__stack_usage = 0
   6:main.c        **** 
   7:main.c        ****     uint16_t adcbuf;
   8:main.c        ****     uint8_t temp;
   9:main.c        ****     ADMUX |= ((1<<REFS0)|(1<<MUX2)|(1<<MUX0));
  22               		.loc 1 9 0
  23 0000 8091 7C00 		lds r24,124
  24 0004 8564      		ori r24,lo8(69)
  25 0006 8093 7C00 		sts 124,r24
  10:main.c        ****     ADCSRA |= ((1<<ADPS0)|(1<<ADPS1)|(1<<ADPS2));
  26               		.loc 1 10 0
  27 000a 8091 7A00 		lds r24,122
  28 000e 8760      		ori r24,lo8(7)
  29 0010 8093 7A00 		sts 122,r24
  11:main.c        ****     UBRR0H = UBRRH_VALUE;
  30               		.loc 1 11 0
  31 0014 1092 C500 		sts 197,__zero_reg__
  12:main.c        ****     UBRR0L = UBRRL_VALUE;
  32               		.loc 1 12 0
  33 0018 89E1      		ldi r24,lo8(25)
  34 001a 8093 C400 		sts 196,r24
  13:main.c        ****     UCSR0C |= (1<<UCSZ00)|(1<<UCSZ01)|(1<<UPM01);
  35               		.loc 1 13 0
  36 001e 8091 C200 		lds r24,194
  37 0022 8662      		ori r24,lo8(38)
  38 0024 8093 C200 		sts 194,r24
  14:main.c        ****     TIMSK0 |= (1<<TOIE0);
  39               		.loc 1 14 0
  40 0028 8091 6E00 		lds r24,110
  41 002c 8160      		ori r24,lo8(1)
  42 002e 8093 6E00 		sts 110,r24
  15:main.c        ****     counter = 0;
GAS LISTING /tmp/ccFYLhE0.s 			page 2


  43               		.loc 1 15 0
  44 0032 1092 0000 		sts counter,__zero_reg__
  16:main.c        ****     DDRB |= (1<<PB1);
  45               		.loc 1 16 0
  46 0036 219A      		sbi 0x4,1
  17:main.c        ****     sei();
  47               		.loc 1 17 0
  48               	/* #APP */
  49               	 ;  17 "main.c" 1
  50 0038 7894      		sei
  51               	 ;  0 "" 2
  18:main.c        ****     PORTB &= ~(1<<PB1);
  52               		.loc 1 18 0
  53               	/* #NOAPP */
  54 003a 2998      		cbi 0x5,1
  19:main.c        ****     ADCON();
  55               		.loc 1 19 0
  56 003c 8091 7A00 		lds r24,122
  57 0040 8068      		ori r24,lo8(-128)
  58 0042 8093 7A00 		sts 122,r24
  20:main.c        ****     UARTON();
  59               		.loc 1 20 0
  60 0046 8091 C100 		lds r24,193
  61 004a 8860      		ori r24,lo8(8)
  62 004c 8093 C100 		sts 193,r24
  21:main.c        ****     T_ON;
  63               		.loc 1 21 0
  64 0050 85B5      		in r24,0x25
  65 0052 8560      		ori r24,lo8(5)
  66 0054 85BD      		out 0x25,r24
  22:main.c        **** 
  23:main.c        ****     while(1){
  24:main.c        ****         if(counter>=100){
  25:main.c        ****             //TOGGLE
  26:main.c        ****             PORTB ^= (1<<PB1);
  67               		.loc 1 26 0
  68 0056 C2E0      		ldi r28,lo8(2)
  69               	.L2:
  24:main.c        ****             //TOGGLE
  70               		.loc 1 24 0
  71 0058 8091 0000 		lds r24,counter
  72 005c 8436      		cpi r24,lo8(100)
  73 005e 00F0      		brlo .L2
  74               		.loc 1 26 0
  75 0060 85B1      		in r24,0x5
  76 0062 8C27      		eor r24,r28
  77 0064 85B9      		out 0x5,r24
  27:main.c        ****             SADC();
  78               		.loc 1 27 0
  79 0066 8091 7A00 		lds r24,122
  80 006a 8064      		ori r24,lo8(64)
  81 006c 8093 7A00 		sts 122,r24
  82               	.L3:
  28:main.c        ****             while(ADCBUSY()){};
  83               		.loc 1 28 0 discriminator 1
  84 0070 8091 7A00 		lds r24,122
  85 0074 86FD      		sbrc r24,6
GAS LISTING /tmp/ccFYLhE0.s 			page 3


  86 0076 00C0      		rjmp .L3
  29:main.c        ****             adcbuf = ADCL;
  87               		.loc 1 29 0
  88 0078 8091 7800 		lds r24,120
  89               	.LVL0:
  30:main.c        ****             adcbuf |= (ADCH<<8);
  90               		.loc 1 30 0
  91 007c 2091 7900 		lds r18,121
  92 0080 90E0      		ldi r25,0
  93 0082 922B      		or r25,r18
  94               	.LVL1:
  31:main.c        ****             adcbuf -= EE_OFFSET;
  32:main.c        ****             /*adcbuf = ((ADCH<<8)|ADCL)-EE_OFFSET;*/
  33:main.c        ****             temp = eeprom_read_byte((uint8_t *)adcbuf);
  95               		.loc 1 33 0
  96 0084 875B      		subi r24,-73
  97 0086 9109      		sbc r25,__zero_reg__
  98               	.LVL2:
  99 0088 0E94 0000 		call __eerd_byte_m328p
 100               	.LVL3:
 101               	.L4:
  34:main.c        ****             while(!DATAONRX()){};
 102               		.loc 1 34 0 discriminator 1
 103 008c 9091 C000 		lds r25,192
 104 0090 95FF      		sbrs r25,5
 105 0092 00C0      		rjmp .L4
  35:main.c        ****             UDR0 = temp;
 106               		.loc 1 35 0
 107 0094 8093 C600 		sts 198,r24
  36:main.c        ****             counter=0;
 108               		.loc 1 36 0
 109 0098 1092 0000 		sts counter,__zero_reg__
 110 009c 00C0      		rjmp .L2
 111               		.cfi_endproc
 112               	.LFE0:
 113               		.size	main, .-main
 114               		.text
 115               	.global	__vector_16
 116               		.type	__vector_16, @function
 117               	__vector_16:
 118               	.LFB1:
  37:main.c        ****         }
  38:main.c        ****     }
  39:main.c        **** }
  40:main.c        **** 
  41:main.c        **** ISR(TIMER0_OVF_vect){
 119               		.loc 1 41 0
 120               		.cfi_startproc
 121 0000 1F92      		push r1
 122               	.LCFI0:
 123               		.cfi_def_cfa_offset 3
 124               		.cfi_offset 1, -2
 125 0002 0F92      		push r0
 126               	.LCFI1:
 127               		.cfi_def_cfa_offset 4
 128               		.cfi_offset 0, -3
 129 0004 0FB6      		in r0,__SREG__
GAS LISTING /tmp/ccFYLhE0.s 			page 4


 130 0006 0F92      		push r0
 131 0008 1124      		clr __zero_reg__
 132 000a 8F93      		push r24
 133               	.LCFI2:
 134               		.cfi_def_cfa_offset 5
 135               		.cfi_offset 24, -4
 136               	/* prologue: Signal */
 137               	/* frame size = 0 */
 138               	/* stack size = 4 */
 139               	.L__stack_usage = 4
  42:main.c        ****     counter++;
 140               		.loc 1 42 0
 141 000c 8091 0000 		lds r24,counter
 142 0010 8F5F      		subi r24,lo8(-(1))
 143 0012 8093 0000 		sts counter,r24
 144               	/* epilogue start */
  43:main.c        **** }
 145               		.loc 1 43 0
 146 0016 8F91      		pop r24
 147 0018 0F90      		pop r0
 148 001a 0FBE      		out __SREG__,r0
 149 001c 0F90      		pop r0
 150 001e 1F90      		pop r1
 151 0020 1895      		reti
 152               		.cfi_endproc
 153               	.LFE1:
 154               		.size	__vector_16, .-__vector_16
 155               		.comm	counter,1,1
 156               	.Letext0:
 157               		.file 2 "/usr/avr/include/stdint.h"
 158               		.file 3 "/usr/avr/include/avr/eeprom.h"