GAS LISTING /tmp/ccZK9jxP.s 			page 1


   1               		.file	"main.c"
   2               	__SP_H__ = 0x3e
   3               	__SP_L__ = 0x3d
   4               	__SREG__ = 0x3f
   5               	__tmp_reg__ = 0
   6               	__zero_reg__ = 1
   7               		.text
   8               	.Ltext0:
   9               		.cfi_sections	.debug_frame
  10               		.section	.text.startup,"ax",@progbits
  11               	.global	main
  12               		.type	main, @function
  13               	main:
  14               	.LFB1:
  15               		.file 1 "main.c"
   1:main.c        **** #include "main.h"
   2:main.c        **** #include <avr/pgmspace.h>
   3:main.c        **** 
   4:main.c        **** volatile uint8_t triacPow = 0;
   5:main.c        **** volatile uint8_t onChange = 0;
   6:main.c        **** volatile uint16_t adcData = 0;
   7:main.c        **** volatile uint8_t adcAvg = 0;
   8:main.c        **** //Variable stored in program mem. that contains the correct value to get
   9:main.c        **** //a power range from 0% to 100% from the heater
  10:main.c        **** const uint16_t vrmsTriac[] PROGMEM = { 57305, 57362, 57459, 57549, 57639, 57720,
  11:main.c        ****                                        57801, 57875, 57940, 58005, 58070, 58143,
  12:main.c        ****                                        58200, 58265, 58322, 58379, 58444, 58501,
  13:main.c        ****                                        58558, 58607, 58664, 58713, 58778, 58827,
  14:main.c        ****                                        58876, 58924, 58981, 59030, 59079, 59136,
  15:main.c        ****                                        59185, 59234, 59282, 59331, 59380, 59437,
  16:main.c        ****                                        59486, 59535, 59584, 59624, 59673, 59722,
  17:main.c        ****                                        59779, 59828, 59877, 59925, 59974, 60015,
  18:main.c        ****                                        60064, 60121, 60170, 60218, 60267, 60316,
  19:main.c        ****                                        60365, 60414, 60479, 60528, 60576, 60625,
  20:main.c        ****                                        60674, 60731, 60788, 60845, 60894, 60951,
  21:main.c        ****                                        61000, 61057, 61122, 61179, 61236, 61293,
  22:main.c        ****                                        61350, 61407, 61472, 61537, 61594, 61659,
  23:main.c        ****                                        61724, 61797, 61870, 61936, 62009, 62082,
  24:main.c        ****                                        62163, 62245, 62326, 62408, 62505, 62595,
  25:main.c        ****                                        62692, 62798, 62912, 63026, 63164, 63303,
  26:main.c        ****                                        63466, 63653, 63889, 64214, 65427 };
  27:main.c        **** 
  28:main.c        **** int main(void){
  16               		.loc 1 28 0
  17               		.cfi_startproc
  18               	/* prologue: function */
  19               	/* frame size = 0 */
  20               	/* stack size = 0 */
  21               	.L__stack_usage = 0
  22               	.LVL0:
  29:main.c        ****     uint8_t over = 0;
  30:main.c        ****     //ADC Setup: AVcc as reference, ADC5 input, 128 scaler, interrupt enabled
  31:main.c        ****     ADMUX |= ((1<<REFS0)|(1<<MUX2)|(1<<MUX0));
  23               		.loc 1 31 0
  24 0000 8091 7C00 		lds r24,124
  25 0004 8564      		ori r24,lo8(69)
  26 0006 8093 7C00 		sts 124,r24
GAS LISTING /tmp/ccZK9jxP.s 			page 2


  32:main.c        ****     ADCSRA |= ((1<<ADPS0)|(1<<ADPS1)|(1<<ADPS2)|(1<<ADIE));
  27               		.loc 1 32 0
  28 000a 8091 7A00 		lds r24,122
  29 000e 8F60      		ori r24,lo8(15)
  30 0010 8093 7A00 		sts 122,r24
  33:main.c        ****     ADC_ENA();
  31               		.loc 1 33 0
  32 0014 8091 7A00 		lds r24,122
  33 0018 8068      		ori r24,lo8(-128)
  34 001a 8093 7A00 		sts 122,r24
  34:main.c        **** 
  35:main.c        ****     //Uart setup: Rx interrupt enabled, 8 bit length, 1 bit stop, even parity
  36:main.c        ****     UBRR0H = UBRRH_VALUE;
  35               		.loc 1 36 0
  36 001e 1092 C500 		sts 197,__zero_reg__
  37:main.c        ****     UBRR0L = UBRRL_VALUE;
  37               		.loc 1 37 0
  38 0022 89E1      		ldi r24,lo8(25)
  39 0024 8093 C400 		sts 196,r24
  38:main.c        ****     UCSR0B |= (1<<RXCIE0);
  40               		.loc 1 38 0
  41 0028 8091 C100 		lds r24,193
  42 002c 8068      		ori r24,lo8(-128)
  43 002e 8093 C100 		sts 193,r24
  39:main.c        ****     UCSR0C |= (1<<UCSZ00)|(1<<UCSZ01)|(1<<UPM01);
  44               		.loc 1 39 0
  45 0032 8091 C200 		lds r24,194
  46 0036 8662      		ori r24,lo8(38)
  47 0038 8093 C200 		sts 194,r24
  40:main.c        ****     UART_ENA();
  48               		.loc 1 40 0
  49 003c 8091 C100 		lds r24,193
  50 0040 8861      		ori r24,lo8(24)
  51 0042 8093 C100 		sts 193,r24
  41:main.c        **** 
  42:main.c        ****     //External interrupt setup: Falling edge in INT0
  43:main.c        ****     EICRA |= (1<<ISC01);
  52               		.loc 1 43 0
  53 0046 8091 6900 		lds r24,105
  54 004a 8260      		ori r24,lo8(2)
  55 004c 8093 6900 		sts 105,r24
  44:main.c        ****     INT0IE_ENA();
  56               		.loc 1 44 0
  57 0050 E89A      		sbi 0x1d,0
  45:main.c        **** 
  46:main.c        ****     //Output port setup
  47:main.c        ****     TRIAC_ENA();
  58               		.loc 1 47 0
  59 0052 219A      		sbi 0x4,1
  48:main.c        **** 
  49:main.c        ****     //16 bits Timer setup: 8 preescaler, compA and Ovf interrupts enabled
  50:main.c        ****     TCOMP_UPD(T_PULSE);
  60               		.loc 1 50 0
  61 0054 8BE9      		ldi r24,lo8(-101)
  62 0056 9FEF      		ldi r25,lo8(-1)
  63 0058 9093 8900 		sts 136+1,r25
  64 005c 8093 8800 		sts 136,r24
GAS LISTING /tmp/ccZK9jxP.s 			page 3


  51:main.c        ****     TIMSK1 |= (1<<OCIE1A) | (1<<TOIE1);
  65               		.loc 1 51 0
  66 0060 8091 6F00 		lds r24,111
  67 0064 8360      		ori r24,lo8(3)
  68 0066 8093 6F00 		sts 111,r24
  52:main.c        ****     TIMER_ENA();
  69               		.loc 1 52 0
  70 006a 8091 8100 		lds r24,129
  71 006e 8260      		ori r24,lo8(2)
  72 0070 8093 8100 		sts 129,r24
  53:main.c        **** 
  54:main.c        ****     //Interruptions Enable
  55:main.c        ****     sei();
  73               		.loc 1 55 0
  74               	/* #APP */
  75               	 ;  55 "main.c" 1
  76 0074 7894      		sei
  77               	 ;  0 "" 2
  56:main.c        **** 
  57:main.c        ****     ADC_SC();
  78               		.loc 1 57 0
  79               	/* #NOAPP */
  80 0076 8091 7A00 		lds r24,122
  81 007a 8064      		ori r24,lo8(64)
  82 007c 8093 7A00 		sts 122,r24
  58:main.c        ****     TCCR0B |= (1<<CS02) | (1<<CS00);
  83               		.loc 1 58 0
  84 0080 85B5      		in r24,0x25
  85 0082 8560      		ori r24,lo8(5)
  86 0084 85BD      		out 0x25,r24
  59:main.c        **** 
  60:main.c        ****     triacPow = 0;
  87               		.loc 1 60 0
  88 0086 1092 0000 		sts triacPow,__zero_reg__
  29:main.c        ****     //ADC Setup: AVcc as reference, ADC5 input, 128 scaler, interrupt enabled
  89               		.loc 1 29 0
  90 008a 90E0      		ldi r25,0
  61:main.c        **** 
  62:main.c        ****     while(1){
  63:main.c        ****         if(TIFR0 & (1<<TOV0)){
  64:main.c        ****             TIFR0 |= (1<<TOV0);
  65:main.c        ****              over++;
  66:main.c        ****              if(over >= 30){
  67:main.c        ****                  over=0;
  68:main.c        ****                  if (adcData > EE_OFFSET){
  69:main.c        ****                       adcData -= EE_OFFSET;
  70:main.c        ****                     if (adcData > LIM_MAX)
  71:main.c        ****                         adcData = LIM_MAX;
  91               		.loc 1 71 0
  92 008c 84E3      		ldi r24,lo8(52)
  93 008e E82E      		mov r14,r24
  94 0090 83E0      		ldi r24,lo8(3)
  95 0092 F82E      		mov r15,r24
  72:main.c        ****                  }
  73:main.c        ****                  else
  74:main.c        ****                      adcData = 0;
  75:main.c        ****                  /* adcData = ewma(adcData); */
GAS LISTING /tmp/ccZK9jxP.s 			page 4


  76:main.c        ****                  /* uart_tx((uint8_t)(adcData>>8)); */
  77:main.c        ****                  /* uart_tx((uint8_t)adcData); */
  78:main.c        ****                  adcAvg = eeprom_read_byte((uint8_t *)adcData);
  79:main.c        ****                  uart_tx(adcAvg);
  80:main.c        ****                  /* ADC_SC(); */
  81:main.c        ****                  }
  82:main.c        ****         }
  83:main.c        ****         if(onChange){
  84:main.c        ****             if(triacPow == 0x55){
  85:main.c        ****                 TCOMP_UPD(62093);
  86:main.c        ****                 TIMER_ENA();
  87:main.c        ****             }
  88:main.c        ****             else if(triacPow == 0xAA){
  89:main.c        ****                 TCOMP_UPD(61572);
  96               		.loc 1 89 0
  97 0094 04E8      		ldi r16,lo8(-124)
  98 0096 10EF      		ldi r17,lo8(-16)
  85:main.c        ****                 TIMER_ENA();
  99               		.loc 1 85 0
 100 0098 CDE8      		ldi r28,lo8(-115)
 101 009a D2EF      		ldi r29,lo8(-14)
 102               	.LVL1:
 103               	.L2:
  63:main.c        ****             TIFR0 |= (1<<TOV0);
 104               		.loc 1 63 0
 105 009c A89B      		sbis 0x15,0
 106 009e 00C0      		rjmp .L3
  64:main.c        ****              over++;
 107               		.loc 1 64 0
 108 00a0 A89A      		sbi 0x15,0
  65:main.c        ****              if(over >= 30){
 109               		.loc 1 65 0
 110 00a2 9F5F      		subi r25,lo8(-(1))
 111               	.LVL2:
  66:main.c        ****                  over=0;
 112               		.loc 1 66 0
 113 00a4 9E31      		cpi r25,lo8(30)
 114 00a6 00F0      		brlo .L3
 115               	.LVL3:
  68:main.c        ****                       adcData -= EE_OFFSET;
 116               		.loc 1 68 0
 117 00a8 8091 0000 		lds r24,adcData
 118 00ac 9091 0000 		lds r25,adcData+1
 119 00b0 883B      		cpi r24,-72
 120 00b2 9105      		cpc r25,__zero_reg__
 121 00b4 00F4      		brsh .+2
 122 00b6 00C0      		rjmp .L4
  69:main.c        ****                     if (adcData > LIM_MAX)
 123               		.loc 1 69 0
 124 00b8 8091 0000 		lds r24,adcData
 125 00bc 9091 0000 		lds r25,adcData+1
 126 00c0 875B      		subi r24,-73
 127 00c2 9109      		sbc r25,__zero_reg__
 128 00c4 9093 0000 		sts adcData+1,r25
 129 00c8 8093 0000 		sts adcData,r24
  70:main.c        ****                         adcData = LIM_MAX;
 130               		.loc 1 70 0
GAS LISTING /tmp/ccZK9jxP.s 			page 5


 131 00cc 8091 0000 		lds r24,adcData
 132 00d0 9091 0000 		lds r25,adcData+1
 133 00d4 8533      		cpi r24,53
 134 00d6 9340      		sbci r25,3
 135 00d8 00F0      		brlo .L5
  71:main.c        ****                  }
 136               		.loc 1 71 0
 137 00da F092 0000 		sts adcData+1,r15
 138 00de E092 0000 		sts adcData,r14
 139               	.L5:
  78:main.c        ****                  uart_tx(adcAvg);
 140               		.loc 1 78 0
 141 00e2 8091 0000 		lds r24,adcData
 142 00e6 9091 0000 		lds r25,adcData+1
 143 00ea 0E94 0000 		call __eerd_byte_m328p
 144               	.LVL4:
 145 00ee 8093 0000 		sts adcAvg,r24
  79:main.c        ****                  /* ADC_SC(); */
 146               		.loc 1 79 0
 147 00f2 9091 0000 		lds r25,adcAvg
 148               	.LVL5:
 149               	.L6:
 150               	.LBB4:
 151               	.LBB5:
  90:main.c        ****                 TIMER_ENA();
  91:main.c        ****             }
  92:main.c        ****             else {
  93:main.c        ****                 TIMER_DIS();
  94:main.c        ****                 TRIAC_OFF();
  95:main.c        ****             }
  96:main.c        ****             onChange = 0;
  97:main.c        ****         }
  98:main.c        ****     };
  99:main.c        **** }
 100:main.c        **** 
 101:main.c        **** uint16_t ewma(uint16_t sample){
 102:main.c        ****     //Calculates the exponential weighted moving average with alpha = 0,75
 103:main.c        ****     static uint16_t average = 821;
 104:main.c        **** 
 105:main.c        ****     average = ((average * 3) + sample)>>2;
 106:main.c        **** 
 107:main.c        ****     return average;
 108:main.c        **** }
 109:main.c        **** 
 110:main.c        **** void uart_tx(uint8_t data){
 111:main.c        ****     while(!UART_FREE());
 152               		.loc 1 111 0
 153 00f6 8091 C000 		lds r24,192
 154 00fa 85FF      		sbrs r24,5
 155 00fc 00C0      		rjmp .L6
 112:main.c        ****     UDR0 = data;
 156               		.loc 1 112 0
 157 00fe 9093 C600 		sts 198,r25
 158               	.LBE5:
 159               	.LBE4:
  67:main.c        ****                  if (adcData > EE_OFFSET){
 160               		.loc 1 67 0
GAS LISTING /tmp/ccZK9jxP.s 			page 6


 161 0102 90E0      		ldi r25,0
 162               	.LVL6:
 163               	.L3:
  83:main.c        ****             if(triacPow == 0x55){
 164               		.loc 1 83 0
 165 0104 8091 0000 		lds r24,onChange
 166 0108 8823      		tst r24
 167 010a 01F0      		breq .L2
  84:main.c        ****                 TCOMP_UPD(62093);
 168               		.loc 1 84 0
 169 010c 8091 0000 		lds r24,triacPow
 170 0110 8535      		cpi r24,lo8(85)
 171 0112 01F0      		breq .L20
  88:main.c        ****                 TCOMP_UPD(61572);
 172               		.loc 1 88 0
 173 0114 8091 0000 		lds r24,triacPow
 174 0118 8A3A      		cpi r24,lo8(-86)
 175 011a 01F0      		breq .L21
  93:main.c        ****                 TRIAC_OFF();
 176               		.loc 1 93 0
 177 011c 8091 8100 		lds r24,129
 178 0120 8D7F      		andi r24,lo8(-3)
 179 0122 8093 8100 		sts 129,r24
  94:main.c        ****             }
 180               		.loc 1 94 0
 181 0126 2998      		cbi 0x5,1
 182               	.L9:
  96:main.c        ****         }
 183               		.loc 1 96 0
 184 0128 1092 0000 		sts onChange,__zero_reg__
 185 012c 00C0      		rjmp .L2
 186               	.L20:
  85:main.c        ****                 TIMER_ENA();
 187               		.loc 1 85 0
 188 012e D093 8900 		sts 136+1,r29
 189 0132 C093 8800 		sts 136,r28
  86:main.c        ****             }
 190               		.loc 1 86 0
 191 0136 8091 8100 		lds r24,129
 192 013a 8260      		ori r24,lo8(2)
 193 013c 8093 8100 		sts 129,r24
 194 0140 00C0      		rjmp .L9
 195               	.LVL7:
 196               	.L4:
  74:main.c        ****                  /* adcData = ewma(adcData); */
 197               		.loc 1 74 0
 198 0142 1092 0000 		sts adcData+1,__zero_reg__
 199 0146 1092 0000 		sts adcData,__zero_reg__
 200 014a 00C0      		rjmp .L5
 201               	.LVL8:
 202               	.L21:
  89:main.c        ****                 TIMER_ENA();
 203               		.loc 1 89 0
 204 014c 1093 8900 		sts 136+1,r17
 205 0150 0093 8800 		sts 136,r16
  90:main.c        ****             }
 206               		.loc 1 90 0
GAS LISTING /tmp/ccZK9jxP.s 			page 7


 207 0154 8091 8100 		lds r24,129
 208 0158 8260      		ori r24,lo8(2)
 209 015a 8093 8100 		sts 129,r24
 210 015e 00C0      		rjmp .L9
 211               		.cfi_endproc
 212               	.LFE1:
 213               		.size	main, .-main
 214               		.text
 215               	.global	ewma
 216               		.type	ewma, @function
 217               	ewma:
 218               	.LFB2:
 101:main.c        ****     //Calculates the exponential weighted moving average with alpha = 0,75
 219               		.loc 1 101 0
 220               		.cfi_startproc
 221               	.LVL9:
 222               	/* prologue: function */
 223               	/* frame size = 0 */
 224               	/* stack size = 0 */
 225               	.L__stack_usage = 0
 105:main.c        **** 
 226               		.loc 1 105 0
 227 0000 2091 0000 		lds r18,average.1735
 228 0004 3091 0000 		lds r19,average.1735+1
 229 0008 A901      		movw r20,r18
 230 000a 440F      		lsl r20
 231 000c 551F      		rol r21
 232 000e 240F      		add r18,r20
 233 0010 351F      		adc r19,r21
 234 0012 820F      		add r24,r18
 235 0014 931F      		adc r25,r19
 236               	.LVL10:
 237 0016 9695      		lsr r25
 238 0018 8795      		ror r24
 239 001a 9695      		lsr r25
 240 001c 8795      		ror r24
 241 001e 9093 0000 		sts average.1735+1,r25
 242 0022 8093 0000 		sts average.1735,r24
 108:main.c        **** 
 243               		.loc 1 108 0
 244 0026 0895      		ret
 245               		.cfi_endproc
 246               	.LFE2:
 247               		.size	ewma, .-ewma
 248               	.global	uart_tx
 249               		.type	uart_tx, @function
 250               	uart_tx:
 251               	.LFB3:
 110:main.c        ****     while(!UART_FREE());
 252               		.loc 1 110 0
 253               		.cfi_startproc
 254               	/* prologue: function */
 255               	/* frame size = 0 */
 256               	/* stack size = 0 */
 257               	.L__stack_usage = 0
 258               	.LVL11:
 259               	.L24:
GAS LISTING /tmp/ccZK9jxP.s 			page 8


 111:main.c        ****     UDR0 = data;
 260               		.loc 1 111 0 discriminator 1
 261 0028 9091 C000 		lds r25,192
 262 002c 95FF      		sbrs r25,5
 263 002e 00C0      		rjmp .L24
 264               		.loc 1 112 0
 265 0030 8093 C600 		sts 198,r24
 266 0034 0895      		ret
 267               		.cfi_endproc
 268               	.LFE3:
 269               		.size	uart_tx, .-uart_tx
 270               	.global	__vector_1
 271               		.type	__vector_1, @function
 272               	__vector_1:
 273               	.LFB4:
 113:main.c        **** }
 114:main.c        **** 
 115:main.c        **** /* ISR(TIMER0_OVF_vect){ */
 116:main.c        **** /* } */
 117:main.c        **** 
 118:main.c        **** ISR(INT0_vect){
 274               		.loc 1 118 0
 275               		.cfi_startproc
 276 0036 1F92      		push r1
 277               	.LCFI0:
 278               		.cfi_def_cfa_offset 3
 279               		.cfi_offset 1, -2
 280 0038 0F92      		push r0
 281               	.LCFI1:
 282               		.cfi_def_cfa_offset 4
 283               		.cfi_offset 0, -3
 284 003a 0FB6      		in r0,__SREG__
 285 003c 0F92      		push r0
 286 003e 1124      		clr __zero_reg__
 287 0040 8F93      		push r24
 288               	.LCFI2:
 289               		.cfi_def_cfa_offset 5
 290               		.cfi_offset 24, -4
 291 0042 9F93      		push r25
 292               	.LCFI3:
 293               		.cfi_def_cfa_offset 6
 294               		.cfi_offset 25, -5
 295 0044 EF93      		push r30
 296               	.LCFI4:
 297               		.cfi_def_cfa_offset 7
 298               		.cfi_offset 30, -6
 299 0046 FF93      		push r31
 300               	.LCFI5:
 301               		.cfi_def_cfa_offset 8
 302               		.cfi_offset 31, -7
 303               	/* prologue: Signal */
 304               	/* frame size = 0 */
 305               	/* stack size = 7 */
 306               	.L__stack_usage = 7
 307               	.LBB6:
 119:main.c        ****     TCOUNT_UPD(pgm_read_word(&vrmsTriac[triacPow]));
 308               		.loc 1 119 0
GAS LISTING /tmp/ccZK9jxP.s 			page 9


 309 0048 E091 0000 		lds r30,triacPow
 310 004c F0E0      		ldi r31,0
 311 004e EE0F      		lsl r30
 312 0050 FF1F      		rol r31
 313 0052 E050      		subi r30,lo8(-(vrmsTriac))
 314 0054 F040      		sbci r31,hi8(-(vrmsTriac))
 315               	.LVL12:
 316               	/* #APP */
 317               	 ;  119 "main.c" 1
 318 0056 8591      		lpm r24, Z+
 319 0058 9491      		lpm r25, Z
 320               		
 321               	 ;  0 "" 2
 322               	.LVL13:
 323               	/* #NOAPP */
 324               	.LBE6:
 325 005a 9093 8500 		sts 132+1,r25
 326 005e 8093 8400 		sts 132,r24
 120:main.c        ****     ADC_SC();
 327               		.loc 1 120 0
 328 0062 EAE7      		ldi r30,lo8(122)
 329 0064 F0E0      		ldi r31,0
 330 0066 8081      		ld r24,Z
 331               	.LVL14:
 332 0068 8064      		ori r24,lo8(64)
 333 006a 8083      		st Z,r24
 334               	.LVL15:
 335               	/* epilogue start */
 121:main.c        **** }
 336               		.loc 1 121 0
 337 006c FF91      		pop r31
 338 006e EF91      		pop r30
 339 0070 9F91      		pop r25
 340 0072 8F91      		pop r24
 341 0074 0F90      		pop r0
 342 0076 0FBE      		out __SREG__,r0
 343 0078 0F90      		pop r0
 344 007a 1F90      		pop r1
 345 007c 1895      		reti
 346               		.cfi_endproc
 347               	.LFE4:
 348               		.size	__vector_1, .-__vector_1
 349               	.global	__vector_13
 350               		.type	__vector_13, @function
 351               	__vector_13:
 352               	.LFB5:
 122:main.c        **** 
 123:main.c        **** ISR(TIMER1_OVF_vect){
 353               		.loc 1 123 0
 354               		.cfi_startproc
 355 007e 1F92      		push r1
 356               	.LCFI6:
 357               		.cfi_def_cfa_offset 3
 358               		.cfi_offset 1, -2
 359 0080 0F92      		push r0
 360               	.LCFI7:
 361               		.cfi_def_cfa_offset 4
GAS LISTING /tmp/ccZK9jxP.s 			page 10


 362               		.cfi_offset 0, -3
 363 0082 0FB6      		in r0,__SREG__
 364 0084 0F92      		push r0
 365 0086 1124      		clr __zero_reg__
 366               	/* prologue: Signal */
 367               	/* frame size = 0 */
 368               	/* stack size = 3 */
 369               	.L__stack_usage = 3
 124:main.c        ****     TRIAC_OFF();
 370               		.loc 1 124 0
 371 0088 2998      		cbi 0x5,1
 372               	/* epilogue start */
 125:main.c        **** }
 373               		.loc 1 125 0
 374 008a 0F90      		pop r0
 375 008c 0FBE      		out __SREG__,r0
 376 008e 0F90      		pop r0
 377 0090 1F90      		pop r1
 378 0092 1895      		reti
 379               		.cfi_endproc
 380               	.LFE5:
 381               		.size	__vector_13, .-__vector_13
 382               	.global	__vector_11
 383               		.type	__vector_11, @function
 384               	__vector_11:
 385               	.LFB6:
 126:main.c        **** 
 127:main.c        **** ISR(TIMER1_COMPA_vect){
 386               		.loc 1 127 0
 387               		.cfi_startproc
 388 0094 1F92      		push r1
 389               	.LCFI8:
 390               		.cfi_def_cfa_offset 3
 391               		.cfi_offset 1, -2
 392 0096 0F92      		push r0
 393               	.LCFI9:
 394               		.cfi_def_cfa_offset 4
 395               		.cfi_offset 0, -3
 396 0098 0FB6      		in r0,__SREG__
 397 009a 0F92      		push r0
 398 009c 1124      		clr __zero_reg__
 399               	/* prologue: Signal */
 400               	/* frame size = 0 */
 401               	/* stack size = 3 */
 402               	.L__stack_usage = 3
 128:main.c        ****     TRIAC_ON();
 403               		.loc 1 128 0
 404 009e 299A      		sbi 0x5,1
 405               	/* epilogue start */
 129:main.c        **** }
 406               		.loc 1 129 0
 407 00a0 0F90      		pop r0
 408 00a2 0FBE      		out __SREG__,r0
 409 00a4 0F90      		pop r0
 410 00a6 1F90      		pop r1
 411 00a8 1895      		reti
 412               		.cfi_endproc
GAS LISTING /tmp/ccZK9jxP.s 			page 11


 413               	.LFE6:
 414               		.size	__vector_11, .-__vector_11
 415               	.global	__vector_21
 416               		.type	__vector_21, @function
 417               	__vector_21:
 418               	.LFB7:
 130:main.c        **** 
 131:main.c        **** 
 132:main.c        **** ISR(ADC_vect){
 419               		.loc 1 132 0
 420               		.cfi_startproc
 421 00aa 1F92      		push r1
 422               	.LCFI10:
 423               		.cfi_def_cfa_offset 3
 424               		.cfi_offset 1, -2
 425 00ac 0F92      		push r0
 426               	.LCFI11:
 427               		.cfi_def_cfa_offset 4
 428               		.cfi_offset 0, -3
 429 00ae 0FB6      		in r0,__SREG__
 430 00b0 0F92      		push r0
 431 00b2 1124      		clr __zero_reg__
 432 00b4 2F93      		push r18
 433               	.LCFI12:
 434               		.cfi_def_cfa_offset 5
 435               		.cfi_offset 18, -4
 436 00b6 8F93      		push r24
 437               	.LCFI13:
 438               		.cfi_def_cfa_offset 6
 439               		.cfi_offset 24, -5
 440 00b8 9F93      		push r25
 441               	.LCFI14:
 442               		.cfi_def_cfa_offset 7
 443               		.cfi_offset 25, -6
 444               	/* prologue: Signal */
 445               	/* frame size = 0 */
 446               	/* stack size = 6 */
 447               	.L__stack_usage = 6
 133:main.c        ****     adcData = ADCL | (ADCH<<8);
 448               		.loc 1 133 0
 449 00ba 8091 7800 		lds r24,120
 450 00be 2091 7900 		lds r18,121
 451 00c2 90E0      		ldi r25,0
 452 00c4 922B      		or r25,r18
 453 00c6 9093 0000 		sts adcData+1,r25
 454 00ca 8093 0000 		sts adcData,r24
 455               	/* epilogue start */
 134:main.c        **** }
 456               		.loc 1 134 0
 457 00ce 9F91      		pop r25
 458 00d0 8F91      		pop r24
 459 00d2 2F91      		pop r18
 460 00d4 0F90      		pop r0
 461 00d6 0FBE      		out __SREG__,r0
 462 00d8 0F90      		pop r0
 463 00da 1F90      		pop r1
 464 00dc 1895      		reti
GAS LISTING /tmp/ccZK9jxP.s 			page 12


 465               		.cfi_endproc
 466               	.LFE7:
 467               		.size	__vector_21, .-__vector_21
 468               	.global	__vector_18
 469               		.type	__vector_18, @function
 470               	__vector_18:
 471               	.LFB8:
 135:main.c        **** 
 136:main.c        **** ISR(USART_RX_vect){
 472               		.loc 1 136 0
 473               		.cfi_startproc
 474 00de 1F92      		push r1
 475               	.LCFI15:
 476               		.cfi_def_cfa_offset 3
 477               		.cfi_offset 1, -2
 478 00e0 0F92      		push r0
 479               	.LCFI16:
 480               		.cfi_def_cfa_offset 4
 481               		.cfi_offset 0, -3
 482 00e2 0FB6      		in r0,__SREG__
 483 00e4 0F92      		push r0
 484 00e6 1124      		clr __zero_reg__
 485 00e8 8F93      		push r24
 486               	.LCFI17:
 487               		.cfi_def_cfa_offset 5
 488               		.cfi_offset 24, -4
 489               	/* prologue: Signal */
 490               	/* frame size = 0 */
 491               	/* stack size = 4 */
 492               	.L__stack_usage = 4
 137:main.c        ****     triacPow = UDR0;
 493               		.loc 1 137 0
 494 00ea 8091 C600 		lds r24,198
 495 00ee 8093 0000 		sts triacPow,r24
 496               	/* epilogue start */
 138:main.c        **** }
 497               		.loc 1 138 0
 498 00f2 8F91      		pop r24
 499 00f4 0F90      		pop r0
 500 00f6 0FBE      		out __SREG__,r0
 501 00f8 0F90      		pop r0
 502 00fa 1F90      		pop r1
 503 00fc 1895      		reti
 504               		.cfi_endproc
 505               	.LFE8:
 506               		.size	__vector_18, .-__vector_18
 507               		.data
 508               		.type	average.1735, @object
 509               		.size	average.1735, 2
 510               	average.1735:
 511 0000 3503      		.word	821
 512               	.global	vrmsTriac
 513               		.section	.progmem.data,"a",@progbits
 514               		.type	vrmsTriac, @object
 515               		.size	vrmsTriac, 202
 516               	vrmsTriac:
 517 0000 D9DF      		.word	-8231
GAS LISTING /tmp/ccZK9jxP.s 			page 13


 518 0002 12E0      		.word	-8174
 519 0004 73E0      		.word	-8077
 520 0006 CDE0      		.word	-7987
 521 0008 27E1      		.word	-7897
 522 000a 78E1      		.word	-7816
 523 000c C9E1      		.word	-7735
 524 000e 13E2      		.word	-7661
 525 0010 54E2      		.word	-7596
 526 0012 95E2      		.word	-7531
 527 0014 D6E2      		.word	-7466
 528 0016 1FE3      		.word	-7393
 529 0018 58E3      		.word	-7336
 530 001a 99E3      		.word	-7271
 531 001c D2E3      		.word	-7214
 532 001e 0BE4      		.word	-7157
 533 0020 4CE4      		.word	-7092
 534 0022 85E4      		.word	-7035
 535 0024 BEE4      		.word	-6978
 536 0026 EFE4      		.word	-6929
 537 0028 28E5      		.word	-6872
 538 002a 59E5      		.word	-6823
 539 002c 9AE5      		.word	-6758
 540 002e CBE5      		.word	-6709
 541 0030 FCE5      		.word	-6660
 542 0032 2CE6      		.word	-6612
 543 0034 65E6      		.word	-6555
 544 0036 96E6      		.word	-6506
 545 0038 C7E6      		.word	-6457
 546 003a 00E7      		.word	-6400
 547 003c 31E7      		.word	-6351
 548 003e 62E7      		.word	-6302
 549 0040 92E7      		.word	-6254
 550 0042 C3E7      		.word	-6205
 551 0044 F4E7      		.word	-6156
 552 0046 2DE8      		.word	-6099
 553 0048 5EE8      		.word	-6050
 554 004a 8FE8      		.word	-6001
 555 004c C0E8      		.word	-5952
 556 004e E8E8      		.word	-5912
 557 0050 19E9      		.word	-5863
 558 0052 4AE9      		.word	-5814
 559 0054 83E9      		.word	-5757
 560 0056 B4E9      		.word	-5708
 561 0058 E5E9      		.word	-5659
 562 005a 15EA      		.word	-5611
 563 005c 46EA      		.word	-5562
 564 005e 6FEA      		.word	-5521
 565 0060 A0EA      		.word	-5472
 566 0062 D9EA      		.word	-5415
 567 0064 0AEB      		.word	-5366
 568 0066 3AEB      		.word	-5318
 569 0068 6BEB      		.word	-5269
 570 006a 9CEB      		.word	-5220
 571 006c CDEB      		.word	-5171
 572 006e FEEB      		.word	-5122
 573 0070 3FEC      		.word	-5057
 574 0072 70EC      		.word	-5008
GAS LISTING /tmp/ccZK9jxP.s 			page 14


 575 0074 A0EC      		.word	-4960
 576 0076 D1EC      		.word	-4911
 577 0078 02ED      		.word	-4862
 578 007a 3BED      		.word	-4805
 579 007c 74ED      		.word	-4748
 580 007e ADED      		.word	-4691
 581 0080 DEED      		.word	-4642
 582 0082 17EE      		.word	-4585
 583 0084 48EE      		.word	-4536
 584 0086 81EE      		.word	-4479
 585 0088 C2EE      		.word	-4414
 586 008a FBEE      		.word	-4357
 587 008c 34EF      		.word	-4300
 588 008e 6DEF      		.word	-4243
 589 0090 A6EF      		.word	-4186
 590 0092 DFEF      		.word	-4129
 591 0094 20F0      		.word	-4064
 592 0096 61F0      		.word	-3999
 593 0098 9AF0      		.word	-3942
 594 009a DBF0      		.word	-3877
 595 009c 1CF1      		.word	-3812
 596 009e 65F1      		.word	-3739
 597 00a0 AEF1      		.word	-3666
 598 00a2 F0F1      		.word	-3600
 599 00a4 39F2      		.word	-3527
 600 00a6 82F2      		.word	-3454
 601 00a8 D3F2      		.word	-3373
 602 00aa 25F3      		.word	-3291
 603 00ac 76F3      		.word	-3210
 604 00ae C8F3      		.word	-3128
 605 00b0 29F4      		.word	-3031
 606 00b2 83F4      		.word	-2941
 607 00b4 E4F4      		.word	-2844
 608 00b6 4EF5      		.word	-2738
 609 00b8 C0F5      		.word	-2624
 610 00ba 32F6      		.word	-2510
 611 00bc BCF6      		.word	-2372
 612 00be 47F7      		.word	-2233
 613 00c0 EAF7      		.word	-2070
 614 00c2 A5F8      		.word	-1883
 615 00c4 91F9      		.word	-1647
 616 00c6 D6FA      		.word	-1322
 617 00c8 93FF      		.word	-109
 618               	.global	adcAvg
 619               		.section .bss
 620               		.type	adcAvg, @object
 621               		.size	adcAvg, 1
 622               	adcAvg:
 623 0000 00        		.zero	1
 624               	.global	adcData
 625               		.type	adcData, @object
 626               		.size	adcData, 2
 627               	adcData:
 628 0001 0000      		.zero	2
 629               	.global	onChange
 630               		.type	onChange, @object
 631               		.size	onChange, 1
GAS LISTING /tmp/ccZK9jxP.s 			page 15


 632               	onChange:
 633 0003 00        		.zero	1
 634               	.global	triacPow
 635               		.type	triacPow, @object
 636               		.size	triacPow, 1
 637               	triacPow:
 638 0004 00        		.zero	1
 639               		.text
 640               	.Letext0:
 641               		.file 2 "/usr/avr/include/stdint.h"
 642               		.file 3 "/usr/avr/include/avr/eeprom.h"